target datalayout = "e-m:e-p270:32:32-p271:32:32-p272:64:64-i64:64-i128:128-f80:128-n8:16:32:64-S128"
target triple = "x86_64-unknown-linux-gnu"

@lambda_tbl = dso_local global [283 x double] zeroinitializer, align 16
@rgb_tbl = dso_local global [3 x [283 x double]] zeroinitializer, align 16

; Function Attrs: mustprogress nounwind uwtable
define dso_local noundef double @_Z7sigmoidd(double noundef %x) #4 {
entry:
  %x.addr = alloca double, align 8
  store double %x, ptr %x.addr, align 8
  %0 = load double, ptr %x.addr, align 8
  %mul = fmul double 5.000000e-01, %0
  %1 = load double, ptr %x.addr, align 8
  %2 = load double, ptr %x.addr, align 8
  %mul1 = fmul double %1, %2
  %add = fadd double 1.000000e+00, %mul1
  %call = call double @sqrt(double noundef %add) #3
  %div = fdiv double %mul, %call
  %add2 = fadd double %div, 5.000000e-01
  ret double %add2
}

; Function Attrs: mustprogress uwtable
define dso_local void @_Z13eval_residualPKdS0_Pd(ptr noundef %coeffs, ptr noundef %rgb, ptr noundef %residual) #6 {
entry:
  %coeffs.addr = alloca ptr, align 8
  %rgb.addr = alloca ptr, align 8
  %residual.addr = alloca ptr, align 8
  %out = alloca [3 x double], align 16
  %i = alloca i32, align 4
  %lambda = alloca double, align 8
  %x = alloca double, align 8
  %i1 = alloca i32, align 4
  %s = alloca double, align 8
  %j = alloca i32, align 4
  %j24 = alloca i32, align 4
  store ptr %coeffs, ptr %coeffs.addr, align 8
  store ptr %rgb, ptr %rgb.addr, align 8
  store ptr %residual, ptr %residual.addr, align 8
  call void @llvm.memset.p0.i64(ptr align 16 %out, i8 0, i64 24, i1 false)
  store i32 0, ptr %i, align 4
  br label %for.cond

for.cond:                                         ; preds = %for.inc21, %entry
  %0 = load i32, ptr %i, align 4
  %cmp = icmp slt i32 %0, 283
  br i1 %cmp, label %for.body, label %for.end23

for.body:                                         ; preds = %for.cond
  %1 = load i32, ptr %i, align 4
  %idxprom = sext i32 %1 to i64
  %arrayidx = getelementptr inbounds [283 x double], ptr @lambda_tbl, i64 0, i64 %idxprom
  %2 = load double, ptr %arrayidx, align 8
  %sub = fsub double %2, 3.600000e+02
  %div = fdiv double %sub, 4.700000e+02
  store double %div, ptr %lambda, align 8
  store double 0.000000e+00, ptr %x, align 8
  store i32 0, ptr %i1, align 4
  br label %for.cond2

for.cond2:                                        ; preds = %for.inc, %for.body
  %3 = load i32, ptr %i1, align 4
  %cmp3 = icmp slt i32 %3, 3
  br i1 %cmp3, label %for.body4, label %for.end

for.body4:                                        ; preds = %for.cond2
  %4 = load double, ptr %x, align 8
  %5 = load double, ptr %lambda, align 8
  %mul = fmul double %4, %5
  %6 = load ptr, ptr %coeffs.addr, align 8
  %7 = load i32, ptr %i1, align 4
  %idxprom5 = sext i32 %7 to i64
  %arrayidx6 = getelementptr inbounds double, ptr %6, i64 %idxprom5
  %8 = load double, ptr %arrayidx6, align 8
  %add = fadd double %mul, %8
  store double %add, ptr %x, align 8
  br label %for.inc

for.inc:                                          ; preds = %for.body4
  %9 = load i32, ptr %i1, align 4
  %inc = add nsw i32 %9, 1
  store i32 %inc, ptr %i1, align 4
  br label %for.cond2, !llvm.loop !20

for.end:                                          ; preds = %for.cond2
  %10 = load double, ptr %x, align 8
  %call = call noundef double @_Z7sigmoidd(double noundef %10)
  store double %call, ptr %s, align 8
  store i32 0, ptr %j, align 4
  br label %for.cond7

for.cond7:                                        ; preds = %for.inc18, %for.end
  %11 = load i32, ptr %j, align 4
  %cmp8 = icmp slt i32 %11, 3
  br i1 %cmp8, label %for.body9, label %for.end20

for.body9:                                        ; preds = %for.cond7
  %12 = load i32, ptr %j, align 4
  %idxprom10 = sext i32 %12 to i64
  %arrayidx11 = getelementptr inbounds [3 x [283 x double]], ptr @rgb_tbl, i64 0, i64 %idxprom10
  %13 = load i32, ptr %i, align 4
  %idxprom12 = sext i32 %13 to i64
  %arrayidx13 = getelementptr inbounds [283 x double], ptr %arrayidx11, i64 0, i64 %idxprom12
  %14 = load double, ptr %arrayidx13, align 8
  %15 = load double, ptr %s, align 8
  %mul14 = fmul double %14, %15
  %16 = load i32, ptr %j, align 4
  %idxprom15 = sext i32 %16 to i64
  %arrayidx16 = getelementptr inbounds [3 x double], ptr %out, i64 0, i64 %idxprom15
  %17 = load double, ptr %arrayidx16, align 8
  %add17 = fadd double %17, %mul14
  store double %add17, ptr %arrayidx16, align 8
  br label %for.inc18

for.inc18:                                        ; preds = %for.body9
  %18 = load i32, ptr %j, align 4
  %inc19 = add nsw i32 %18, 1
  store i32 %inc19, ptr %j, align 4
  br label %for.cond7, !llvm.loop !21

for.end20:                                        ; preds = %for.cond7
  br label %for.inc21

for.inc21:                                        ; preds = %for.end20
  %19 = load i32, ptr %i, align 4
  %inc22 = add nsw i32 %19, 1
  store i32 %inc22, ptr %i, align 4
  br label %for.cond, !llvm.loop !22

for.end23:                                        ; preds = %for.cond
  %arraydecay = getelementptr inbounds [3 x double], ptr %out, i64 0, i64 0
  call void @_Z7cie_labPd(ptr noundef %arraydecay)
  %20 = load ptr, ptr %residual.addr, align 8
  %21 = load ptr, ptr %rgb.addr, align 8
  call void @llvm.memcpy.p0.p0.i64(ptr align 8 %20, ptr align 8 %21, i64 24, i1 false)
  %22 = load ptr, ptr %residual.addr, align 8
  call void @_Z7cie_labPd(ptr noundef %22)
  store i32 0, ptr %j24, align 4
  br label %for.cond25

for.cond25:                                       ; preds = %for.inc33, %for.end23
  %23 = load i32, ptr %j24, align 4
  %cmp26 = icmp slt i32 %23, 3
  br i1 %cmp26, label %for.body27, label %for.end35

for.body27:                                       ; preds = %for.cond25
  %24 = load i32, ptr %j24, align 4
  %idxprom28 = sext i32 %24 to i64
  %arrayidx29 = getelementptr inbounds [3 x double], ptr %out, i64 0, i64 %idxprom28
  %25 = load double, ptr %arrayidx29, align 8
  %26 = load ptr, ptr %residual.addr, align 8
  %27 = load i32, ptr %j24, align 4
  %idxprom30 = sext i32 %27 to i64
  %arrayidx31 = getelementptr inbounds double, ptr %26, i64 %idxprom30
  %28 = load double, ptr %arrayidx31, align 8
  %sub32 = fsub double %28, %25
  store double %sub32, ptr %arrayidx31, align 8
  br label %for.inc33

for.inc33:                                        ; preds = %for.body27
  %29 = load i32, ptr %j24, align 4
  %inc34 = add nsw i32 %29, 1
  store i32 %inc34, ptr %j24, align 4
  br label %for.cond25, !llvm.loop !23

for.end35:                                        ; preds = %for.cond25
  ret void
}