; Function Attrs: mustprogress nofree nosync nounwind memory(read, argmem: readwrite, inaccessiblemem: none) uwtable
define dso_local void @_Z13eval_residualPKdS0_Pd(ptr nocapture noundef readonly %coeffs, ptr nocapture noundef readonly %rgb, ptr nocapture noundef %residual) local_unnamed_addr #8 {
entry:
  %out = alloca [3 x double], align 16
  call void @llvm.memset.p0.i64(ptr noundef nonnull align 16 dereferenceable(24) %out, i8 0, i64 24, i1 false)
  br label %for.body

for.body:                                         ; preds = %entry, %for.inc21
  %indvars.iv25 = phi i64 [ 0, %entry ], [ %indvars.iv.next26, %for.inc21 ]
  %arrayidx = getelementptr inbounds [283 x double], ptr @lambda_tbl, i64 0, i64 %indvars.iv25
  %0 = load double, ptr %arrayidx, align 8
  %sub = fadd double %0, -3.600000e+02
  %div = fdiv double %sub, 4.700000e+02
  br label %for.body4

for.body4:                                        ; preds = %for.body, %for.body4
  %indvars.iv = phi i64 [ 0, %for.body ], [ %indvars.iv.next, %for.body4 ]
  %x.015 = phi double [ 0.000000e+00, %for.body ], [ %add, %for.body4 ]
  %mul = fmul double %div, %x.015
  %arrayidx6 = getelementptr inbounds double, ptr %coeffs, i64 %indvars.iv
  %1 = load double, ptr %arrayidx6, align 8
  %add = fadd double %mul, %1
  %indvars.iv.next = add nuw nsw i64 %indvars.iv, 1
  %exitcond.not = icmp eq i64 %indvars.iv.next, 3
  br i1 %exitcond.not, label %for.end, label %for.body4, !llvm.loop !20

for.end:                                          ; preds = %for.body4
  %mul.i = fmul double %add, 5.000000e-01
  %mul1.i = fmul double %add, %add
  %add.i = fadd double %mul1.i, 1.000000e+00
  %sqrt.i = tail call double @llvm.sqrt.f64(double %add.i)
  %div.i = fdiv double %mul.i, %sqrt.i
  %add2.i = fadd double %div.i, 5.000000e-01
  br label %for.body9

for.body9:                                        ; preds = %for.end, %for.body9
  %indvars.iv21 = phi i64 [ 0, %for.end ], [ %indvars.iv.next22, %for.body9 ]
  %arrayidx13 = getelementptr inbounds [3 x [283 x double]], ptr @rgb_tbl, i64 0, i64 %indvars.iv21, i64 %indvars.iv25
  %2 = load double, ptr %arrayidx13, align 8
  %mul14 = fmul double %add2.i, %2
  %arrayidx16 = getelementptr inbounds [3 x double], ptr %out, i64 0, i64 %indvars.iv21
  %3 = load double, ptr %arrayidx16, align 8
  %add17 = fadd double %3, %mul14
  store double %add17, ptr %arrayidx16, align 8
  %indvars.iv.next22 = add nuw nsw i64 %indvars.iv21, 1
  %exitcond24.not = icmp eq i64 %indvars.iv.next22, 3
  br i1 %exitcond24.not, label %for.inc21, label %for.body9, !llvm.loop !21

for.inc21:                                        ; preds = %for.body9
  %indvars.iv.next26 = add nuw nsw i64 %indvars.iv25, 1
  %exitcond28.not = icmp eq i64 %indvars.iv.next26, 283
  br i1 %exitcond28.not, label %for.end23, label %for.body, !llvm.loop !22

for.end23:                                        ; preds = %for.inc21
  call void @_Z7cie_labPd(ptr noundef nonnull %out)
  tail call void @llvm.memcpy.p0.p0.i64(ptr noundef nonnull align 8 dereferenceable(24) %residual, ptr noundef nonnull align 8 dereferenceable(24) %rgb, i64 24, i1 false)
  tail call void @_Z7cie_labPd(ptr noundef %residual)
  br label %for.body27

for.body27:                                       ; preds = %for.end23, %for.body27
  %indvars.iv29 = phi i64 [ 0, %for.end23 ], [ %indvars.iv.next30, %for.body27 ]
  %arrayidx29 = getelementptr inbounds [3 x double], ptr %out, i64 0, i64 %indvars.iv29
  %4 = load double, ptr %arrayidx29, align 8
  %arrayidx31 = getelementptr inbounds double, ptr %residual, i64 %indvars.iv29
  %5 = load double, ptr %arrayidx31, align 8
  %sub32 = fsub double %5, %4
  store double %sub32, ptr %arrayidx31, align 8
  %indvars.iv.next30 = add nuw nsw i64 %indvars.iv29, 1
  %exitcond32.not = icmp eq i64 %indvars.iv.next30, 3
  br i1 %exitcond32.not, label %for.end35, label %for.body27, !llvm.loop !23

for.end35:                                        ; preds = %for.body27
  ret void
}